; Function Attrs: mustprogress uwtable
define noundef i32 @_ZN7lodepng10decompressERSt6vectorIhSaIhEERKS2_RK25LodePNGDecompressSettings(ptr noundef nonnull align 8 dereferenceable(24) %0, ptr noundef nonnull readonly align 8 captures(none) dereferenceable(24) %1, ptr noundef nonnull align 8 dereferenceable(40) %2) local_unnamed_addr #5 {
  %4 = load ptr, ptr %1, align 8, !tbaa !7
  %5 = getelementptr inbounds nuw i8, ptr %1, i64 8
  %6 = load ptr, ptr %5, align 8, !tbaa !7
  %7 = icmp eq ptr %4, %6
  %spec.select = select i1 %7, ptr null, ptr %4
  %8 = ptrtoint ptr %6 to i64
  %9 = ptrtoint ptr %4 to i64
  %10 = sub i64 %8, %9
  %11 = tail call noundef i32 @_ZN7lodepng10decompressERSt6vectorIhSaIhEEPKhmRK25LodePNGDecompressSettings(ptr noundef nonnull align 8 dereferenceable(24) %0, ptr noundef %spec.select, i64 noundef %10, ptr noundef nonnull align 8 dereferenceable(40) %2)
  ret i32 %11
}